; Function Attrs: nounwind uwtable
define ptr @l_Lake_Toml_elabUnquotedKey(ptr noundef %0, ptr noundef %1, ptr noundef %2, ptr noundef %3) local_unnamed_addr #0 {
  %5 = load ptr, ptr @l_Lake_Toml_elabUnquotedKey___closed__2, align 8, !tbaa !4
  %6 = tail call ptr @l_Lean_Syntax_isLit_x3f(ptr noundef %5, ptr noundef %0) #7
  %7 = ptrtoint ptr %6 to i64
  %8 = and i64 %7, 1
  %.not.i22 = icmp eq i64 %8, 0
  br i1 %.not.i22, label %12, label %9

9:                                                ; preds = %4
  %10 = lshr i64 %7, 1
  %11 = trunc i64 %10 to i32
  br label %lean_obj_tag.exit

12:                                               ; preds = %4
  %13 = getelementptr i8, ptr %6, i64 4
  %.val.i = load i32, ptr %13, align 4
  %14 = lshr i32 %.val.i, 24
  br label %lean_obj_tag.exit

lean_obj_tag.exit:                                ; preds = %9, %12
  %.0.i = phi i32 [ %11, %9 ], [ %14, %12 ]
  %15 = icmp eq i32 %.0.i, 0
  br i1 %15, label %16, label %19

16:                                               ; preds = %lean_obj_tag.exit
  %17 = load ptr, ptr @l_Lake_Toml_elabUnquotedKey___closed__7, align 8, !tbaa !4
  %18 = tail call ptr @l_Lean_throwErrorAt___at_Lake_Toml_elabLit___spec__1(ptr noundef %0, ptr noundef %17, ptr noundef %1, ptr noundef %2, ptr noundef %3)
  br label %52

19:                                               ; preds = %lean_obj_tag.exit
  %20 = ptrtoint ptr %1 to i64
  %21 = and i64 %20, 1
  %.not = icmp eq i64 %21, 0
  br i1 %.not, label %22, label %lean_dec.exit19

22:                                               ; preds = %19
  %23 = load i32, ptr %1, align 4, !tbaa !8
  %24 = icmp sgt i32 %23, 1
  br i1 %24, label %25, label %27, !prof !11

25:                                               ; preds = %22
  %26 = add nsw i32 %23, -1
  store i32 %26, ptr %1, align 4, !tbaa !8
  br label %lean_dec.exit19

27:                                               ; preds = %22
  %.not.i = icmp eq i32 %23, 0
  br i1 %.not.i, label %lean_dec.exit19, label %28

28:                                               ; preds = %27
  tail call void @lean_dec_ref_cold(ptr noundef nonnull %1) #7
  br label %lean_dec.exit19

lean_dec.exit19:                                  ; preds = %28, %27, %25, %19
  %29 = getelementptr inbounds nuw i8, ptr %6, i64 8
  %30 = load ptr, ptr %29, align 8, !tbaa !4
  %31 = ptrtoint ptr %30 to i64
  %32 = and i64 %31, 1
  %.not25 = icmp eq i64 %32, 0
  br i1 %.not25, label %33, label %lean_inc.exit

33:                                               ; preds = %lean_dec.exit19
  %.val.i23 = load i32, ptr %30, align 4, !tbaa !8
  %34 = icmp sgt i32 %.val.i23, 0
  br i1 %34, label %35, label %37, !prof !11

35:                                               ; preds = %33
  %36 = add nuw i32 %.val.i23, 1
  store i32 %36, ptr %30, align 4, !tbaa !8
  br label %lean_inc.exit

37:                                               ; preds = %33
  %.not.i24 = icmp eq i32 %.val.i23, 0
  br i1 %.not.i24, label %lean_inc.exit, label %38

38:                                               ; preds = %37
  tail call void @lean_inc_ref_cold(ptr noundef nonnull %30) #7
  br label %lean_inc.exit

lean_inc.exit:                                    ; preds = %38, %37, %35, %lean_dec.exit19
  br i1 %.not.i22, label %39, label %lean_dec.exit

39:                                               ; preds = %lean_inc.exit
  %40 = load i32, ptr %6, align 4, !tbaa !8
  %41 = icmp sgt i32 %40, 1
  br i1 %41, label %42, label %44, !prof !11

42:                                               ; preds = %39
  %43 = add nsw i32 %40, -1
  store i32 %43, ptr %6, align 4, !tbaa !8
  br label %lean_dec.exit

44:                                               ; preds = %39
  %.not.i20 = icmp eq i32 %40, 0
  br i1 %.not.i20, label %lean_dec.exit, label %45

45:                                               ; preds = %44
  tail call void @lean_dec_ref_cold(ptr noundef nonnull %6) #7
  br label %lean_dec.exit

lean_dec.exit:                                    ; preds = %45, %44, %42, %lean_inc.exit
  tail call void @lean_inc_heartbeat() #7
  %46 = tail call noalias ptr @mi_malloc_small(i64 noundef 24) #7
  %47 = icmp eq ptr %46, null
  br i1 %47, label %48, label %lean_alloc_ctor.exit

48:                                               ; preds = %lean_dec.exit
  tail call void @lean_internal_panic_out_of_memory() #8
  unreachable

lean_alloc_ctor.exit:                             ; preds = %lean_dec.exit
  %49 = getelementptr inbounds nuw i8, ptr %46, i64 4
  store i32 1, ptr %46, align 4, !tbaa !8
  store i32 131096, ptr %49, align 4
  %50 = getelementptr inbounds nuw i8, ptr %46, i64 8
  store ptr %30, ptr %50, align 8, !tbaa !4
  %51 = getelementptr inbounds nuw i8, ptr %46, i64 16
  store ptr %3, ptr %51, align 8, !tbaa !4
  br label %52

52:                                               ; preds = %lean_alloc_ctor.exit, %16
  %.0 = phi ptr [ %18, %16 ], [ %46, %lean_alloc_ctor.exit ]
  ret ptr %.0
}